; Function Attrs: nounwind uwtable
define internal void @rollback_prepared_cb_wrapper(ptr noundef readonly captures(none) %0, ptr noundef %1, i64 noundef %2, i64 noundef %3) #0 {
  %5 = alloca %struct.LogicalErrorCallbackState, align 8
  %6 = alloca %struct.ErrorContextCallback, align 8
  %7 = getelementptr inbounds nuw i8, ptr %0, i64 224
  %8 = load ptr, ptr %7, align 8
  call void @llvm.lifetime.start.p0(i64 24, ptr nonnull %5) #10
  call void @llvm.lifetime.start.p0(i64 24, ptr nonnull %6) #10
  store ptr %8, ptr %5, align 8
  %9 = getelementptr inbounds nuw i8, ptr %5, i64 8
  store ptr @.str.65, ptr %9, align 8
  %10 = getelementptr inbounds nuw i8, ptr %1, i64 32
  %11 = load i64, ptr %10, align 8
  %12 = getelementptr inbounds nuw i8, ptr %5, i64 16
  store i64 %11, ptr %12, align 8
  %13 = getelementptr inbounds nuw i8, ptr %6, i64 8
  store ptr @output_plugin_error_callback, ptr %13, align 8
  %14 = getelementptr inbounds nuw i8, ptr %6, i64 16
  store ptr %5, ptr %14, align 8
  %15 = load ptr, ptr @error_context_stack, align 8
  store ptr %15, ptr %6, align 8
  store ptr %6, ptr @error_context_stack, align 8
  %16 = getelementptr inbounds nuw i8, ptr %8, i64 283
  store i8 1, ptr %16, align 1
  %17 = getelementptr inbounds nuw i8, ptr %1, i64 4
  %18 = load i32, ptr %17, align 4
  %19 = getelementptr inbounds nuw i8, ptr %8, i64 296
  store i32 %18, ptr %19, align 8
  %20 = getelementptr inbounds nuw i8, ptr %1, i64 40
  %21 = load i64, ptr %20, align 8
  %22 = getelementptr inbounds nuw i8, ptr %8, i64 288
  store i64 %21, ptr %22, align 8
  %23 = getelementptr inbounds nuw i8, ptr %8, i64 300
  store i8 1, ptr %23, align 4
  %24 = getelementptr inbounds nuw i8, ptr %8, i64 144
  %25 = load ptr, ptr %24, align 8
  %26 = icmp eq ptr %25, null
  br i1 %26, label %27, label %31

27:                                               ; preds = %4
  %28 = call zeroext i1 @errstart_cold(i32 noundef 21, ptr noundef null) #11
  call void @llvm.assume(i1 %28)
  %29 = call i32 @errcode(i32 noundef 325) #10
  %30 = call i32 (ptr, ...) @errmsg(ptr noundef nonnull @.str.59, ptr noundef nonnull @.str.66) #10
  call void @errfinish(ptr noundef nonnull @.str.1, i32 noundef 1073, ptr noundef nonnull @__func__.rollback_prepared_cb_wrapper) #10
  unreachable

31:                                               ; preds = %4
  call void %25(ptr noundef nonnull %8, ptr noundef nonnull %1, i64 noundef %2, i64 noundef %3) #10
  %32 = load ptr, ptr %6, align 8
  store ptr %32, ptr @error_context_stack, align 8
  call void @llvm.lifetime.end.p0(i64 24, ptr nonnull %6) #10
  call void @llvm.lifetime.end.p0(i64 24, ptr nonnull %5) #10
  ret void
}